; Function Attrs: mustprogress nounwind uwtable
define hidden void @_ZN6hermes5Value18replaceAllUsesWithEPS0_(ptr noundef nonnull readonly align 8 dereferenceable(40) %this, ptr noundef %Other) local_unnamed_addr #0 align 2 {
entry:
  %cmp = icmp eq ptr %this, %Other
  br i1 %cmp, label %while.end, label %while.cond.preheader

while.cond.preheader:                             ; preds = %entry
  %Size.i = getelementptr inbounds i8, ptr %this, i64 16
  %0 = load i32, ptr %Size.i, align 8
  %tobool.not4 = icmp eq i32 %0, 0
  br i1 %tobool.not4, label %while.end, label %while.body.lr.ph

while.body.lr.ph:                                 ; preds = %while.cond.preheader
  %Users = getelementptr inbounds i8, ptr %this, i64 8
  br label %while.body

while.body:                                       ; preds = %while.body.lr.ph, %_ZN6hermes11Instruction23replaceFirstOperandWithEPNS_5ValueES2_.exit
  %1 = phi i32 [ %0, %while.body.lr.ph ], [ %10, %_ZN6hermes11Instruction23replaceFirstOperandWithEPNS_5ValueES2_.exit ]
  %conv.i = zext i32 %1 to i64
  %2 = load ptr, ptr %Users, align 8
  %3 = getelementptr ptr, ptr %2, i64 %conv.i
  %arrayidx.i = getelementptr i8, ptr %3, i64 -8
  %4 = load ptr, ptr %arrayidx.i, align 8
  %Size.i.i.i = getelementptr inbounds i8, ptr %4, i64 72
  %5 = load i32, ptr %Size.i.i.i, align 8
  %Operands.i.i = getelementptr inbounds i8, ptr %4, i64 64
  %6 = load ptr, ptr %Operands.i.i, align 8
  %7 = sext i32 %5 to i64
  br label %for.cond.i

for.cond.i:                                       ; preds = %for.cond.i, %while.body
  %indvars.iv.i = phi i64 [ %indvars.iv.next.i, %for.cond.i ], [ 0, %while.body ]
  %cmp.i = icmp slt i64 %indvars.iv.i, %7
  tail call void @llvm.assume(i1 %cmp.i)
  %arrayidx.i.i.i = getelementptr inbounds %"struct.std::pair", ptr %6, i64 %indvars.iv.i
  %8 = load ptr, ptr %arrayidx.i.i.i, align 8
  %cmp3.i = icmp eq ptr %8, %this
  %indvars.iv.next.i = add nuw nsw i64 %indvars.iv.i, 1
  br i1 %cmp3.i, label %_ZN6hermes11Instruction23replaceFirstOperandWithEPNS_5ValueES2_.exit, label %for.cond.i, !llvm.loop !6

_ZN6hermes11Instruction23replaceFirstOperandWithEPNS_5ValueES2_.exit: ; preds = %for.cond.i
  %9 = trunc i64 %indvars.iv.i to i32
  tail call void @_ZN6hermes11Instruction10setOperandEPNS_5ValueEj(ptr noundef nonnull align 8 dereferenceable(132) %4, ptr noundef %Other, i32 noundef %9)
  %10 = load i32, ptr %Size.i, align 8
  %tobool.not = icmp eq i32 %10, 0
  br i1 %tobool.not, label %while.end, label %while.body, !llvm.loop !7

while.end:                                        ; preds = %_ZN6hermes11Instruction23replaceFirstOperandWithEPNS_5ValueES2_.exit, %while.cond.preheader, %entry
  ret void
}